; Function Attrs: nounwind uwtable
define ptr @l_Lean_Compiler_LCNF_FindUsed_visitArg(ptr noundef %0, ptr noundef readonly captures(none) %1, ptr noundef %2, ptr readnone captures(none) %3, ptr readnone captures(none) %4, ptr readnone captures(none) %5, ptr readnone captures(none) %6, ptr noundef %7) local_unnamed_addr #0 {
  %9 = ptrtoint ptr %0 to i64
  %10 = and i64 %9, 1
  %.not.i23 = icmp eq i64 %10, 0
  br i1 %.not.i23, label %lean_obj_tag.exit.thread, label %lean_obj_tag.exit

lean_obj_tag.exit:                                ; preds = %8
  %11 = and i64 %9, 8589934590
  %12 = icmp eq i64 %11, 2
  br i1 %12, label %15, label %lean_dec.exit

lean_obj_tag.exit.thread:                         ; preds = %8
  %13 = getelementptr i8, ptr %0, i64 4
  %.val.i = load i32, ptr %13, align 4
  %.mask = and i32 %.val.i, -16777216
  %14 = icmp eq i32 %.mask, 16777216
  br i1 %14, label %15, label %.thread

15:                                               ; preds = %lean_obj_tag.exit.thread, %lean_obj_tag.exit
  %16 = getelementptr inbounds nuw i8, ptr %0, i64 8
  %17 = load ptr, ptr %16, align 8, !tbaa !4
  %18 = ptrtoint ptr %17 to i64
  %19 = and i64 %18, 1
  %.not = icmp eq i64 %19, 0
  br i1 %.not, label %20, label %lean_inc.exit

20:                                               ; preds = %15
  %.val.i24 = load i32, ptr %17, align 4, !tbaa !8
  %21 = icmp sgt i32 %.val.i24, 0
  br i1 %21, label %22, label %24, !prof !11

22:                                               ; preds = %20
  %23 = add nuw i32 %.val.i24, 1
  store i32 %23, ptr %17, align 4, !tbaa !8
  br label %lean_inc.exit

24:                                               ; preds = %20
  %.not.i25 = icmp eq i32 %.val.i24, 0
  br i1 %.not.i25, label %lean_inc.exit, label %25

25:                                               ; preds = %24
  tail call void @lean_inc_ref_cold(ptr noundef nonnull %17) #4
  br label %lean_inc.exit

lean_inc.exit:                                    ; preds = %25, %24, %22, %15
  br i1 %.not.i23, label %26, label %lean_dec.exit20

26:                                               ; preds = %lean_inc.exit
  %27 = load i32, ptr %0, align 4, !tbaa !8
  %28 = icmp sgt i32 %27, 1
  br i1 %28, label %29, label %31, !prof !11

29:                                               ; preds = %26
  %30 = add nsw i32 %27, -1
  store i32 %30, ptr %0, align 4, !tbaa !8
  br label %lean_dec.exit20

31:                                               ; preds = %26
  %.not.i = icmp eq i32 %27, 0
  br i1 %.not.i, label %lean_dec.exit20, label %32

32:                                               ; preds = %31
  tail call void @lean_dec_ref_cold(ptr noundef nonnull %0) #4
  br label %lean_dec.exit20

lean_dec.exit20:                                  ; preds = %32, %31, %29, %lean_inc.exit
  %33 = tail call ptr @l_Lean_Compiler_LCNF_FindUsed_visitFVar(ptr noundef %17, ptr noundef %1, ptr noundef %2, ptr poison, ptr poison, ptr poison, ptr poison, ptr noundef %7)
  br label %46

.thread:                                          ; preds = %lean_obj_tag.exit.thread
  %34 = load i32, ptr %0, align 4, !tbaa !8
  %35 = icmp sgt i32 %34, 1
  br i1 %35, label %36, label %38, !prof !11

36:                                               ; preds = %.thread
  %37 = add nsw i32 %34, -1
  store i32 %37, ptr %0, align 4, !tbaa !8
  br label %lean_dec.exit

38:                                               ; preds = %.thread
  %.not.i21 = icmp eq i32 %34, 0
  br i1 %.not.i21, label %lean_dec.exit, label %39

39:                                               ; preds = %38
  tail call void @lean_dec_ref_cold(ptr noundef nonnull %0) #4
  br label %lean_dec.exit

lean_dec.exit:                                    ; preds = %lean_obj_tag.exit, %39, %38, %36
  tail call void @lean_inc_heartbeat() #4
  %40 = tail call noalias ptr @mi_malloc_small(i64 noundef 24) #4
  %41 = icmp eq ptr %40, null
  br i1 %41, label %42, label %lean_alloc_ctor.exit

42:                                               ; preds = %lean_dec.exit
  tail call void @lean_internal_panic_out_of_memory() #5
  unreachable

lean_alloc_ctor.exit:                             ; preds = %lean_dec.exit
  %43 = getelementptr inbounds nuw i8, ptr %40, i64 4
  store i32 1, ptr %40, align 4, !tbaa !8
  store i32 131096, ptr %43, align 4
  %44 = getelementptr inbounds nuw i8, ptr %40, i64 8
  store ptr inttoptr (i64 1 to ptr), ptr %44, align 8, !tbaa !4
  %45 = getelementptr inbounds nuw i8, ptr %40, i64 16
  store ptr %7, ptr %45, align 8, !tbaa !4
  br label %46

46:                                               ; preds = %lean_alloc_ctor.exit, %lean_dec.exit20
  %.0 = phi ptr [ %33, %lean_dec.exit20 ], [ %40, %lean_alloc_ctor.exit ]
  ret ptr %.0
}